target datalayout = "e-m:e-p270:32:32-p271:32:32-p272:64:64-i64:64-i128:128-f80:128-n8:16:32:64-S128"
target triple = "x86_64-pc-linux-gnu"

; Function Attrs: nounwind uwtable
define zeroext i1 @lv_rb_drop_node(ptr noundef %0, ptr noundef %1) #0 {
  %3 = alloca i1, align 1
  %4 = alloca ptr, align 8
  %5 = alloca ptr, align 8
  %6 = alloca ptr, align 8
  %7 = alloca i32, align 4
  store ptr %0, ptr %4, align 8, !tbaa !3
  store ptr %1, ptr %5, align 8, !tbaa !16
  br label %8

8:                                                ; preds = %2
  %9 = load ptr, ptr %4, align 8, !tbaa !3
  %10 = icmp ne ptr %9, null
  br i1 %10, label %15, label %11

11:                                               ; preds = %8
  br label %12

12:                                               ; preds = %11
  br label %13

13:                                               ; preds = %12
  br label %14

14:                                               ; preds = %13, %14
  br label %14

15:                                               ; preds = %8
  br label %16

16:                                               ; preds = %15
  %17 = load ptr, ptr %4, align 8, !tbaa !3
  %18 = icmp eq ptr %17, null
  br i1 %18, label %19, label %20

19:                                               ; preds = %16
  store i1 false, ptr %3, align 1
  br label %30

20:                                               ; preds = %16
  call void @llvm.lifetime.start.p0(i64 8, ptr %6) #4
  %21 = load ptr, ptr %4, align 8, !tbaa !3
  %22 = load ptr, ptr %5, align 8, !tbaa !16
  %23 = call ptr @lv_rb_remove_node(ptr noundef %21, ptr noundef %22)
  store ptr %23, ptr %6, align 8, !tbaa !8
  %24 = load ptr, ptr %6, align 8, !tbaa !8
  %25 = icmp ne ptr %24, null
  br i1 %25, label %26, label %28

26:                                               ; preds = %20
  %27 = load ptr, ptr %6, align 8, !tbaa !8
  call void @lv_free(ptr noundef %27)
  store i1 true, ptr %3, align 1
  store i32 1, ptr %7, align 4
  br label %29

28:                                               ; preds = %20
  store i1 false, ptr %3, align 1
  store i32 1, ptr %7, align 4
  br label %29

29:                                               ; preds = %28, %26
  call void @llvm.lifetime.end.p0(i64 8, ptr %6) #4
  br label %30

30:                                               ; preds = %29, %19
  %31 = load i1, ptr %3, align 1
  ret i1 %31
}