; Function Attrs: nounwind uwtable
define noundef zeroext i1 @lv_rb_drop_node(ptr noundef captures(address_is_null) %0, ptr noundef %1) local_unnamed_addr #0 {
  %.not = icmp eq ptr %0, null
  br i1 %.not, label %.preheader, label %3

.preheader:                                       ; preds = %2, %.preheader
  br label %.preheader

3:                                                ; preds = %2
  %4 = tail call ptr @lv_rb_remove_node(ptr noundef nonnull %0, ptr noundef %1)
  %.not9 = icmp ne ptr %4, null
  br i1 %.not9, label %5, label %6

5:                                                ; preds = %3
  tail call void @lv_free(ptr noundef nonnull %4) #5
  br label %6

6:                                                ; preds = %5, %3
  ret i1 %.not9
}